; Function Attrs: mustprogress null_pointer_is_valid sspstrong uwtable
define void @_ZN15RtpPlayerDialog8panXAxisEi(ptr noundef readonly align 8 captures(none) dereferenceable_or_null(472) %0, i32 noundef %1) local_unnamed_addr #0 align 2 {
  %.not = icmp eq i32 %1, 0
  br i1 %.not, label %24, label %3

3:                                                ; preds = %2
  %4 = getelementptr inbounds nuw i8, ptr %0, i64 144
  %5 = load ptr, ptr %4, align 8
  %6 = getelementptr inbounds nuw i8, ptr %5, i64 312
  %7 = load ptr, ptr %6, align 8
  %8 = getelementptr inbounds nuw i8, ptr %7, i64 40
  %9 = load ptr, ptr %8, align 8
  %10 = getelementptr inbounds nuw i8, ptr %9, i64 64
  %11 = load ptr, ptr %10, align 8
  %12 = getelementptr inbounds nuw i8, ptr %11, i64 100
  %13 = load i32, ptr %12, align 4
  %14 = add i32 %13, 1
  %15 = getelementptr inbounds nuw i8, ptr %11, i64 92
  %16 = load i32, ptr %15, align 4
  %17 = sub i32 %14, %16
  %.sroa.2.0..sroa_idx.i = getelementptr inbounds nuw i8, ptr %9, i64 312
  %.sroa.2.0.copyload.i = load double, ptr %.sroa.2.0..sroa_idx.i, align 8
  %18 = getelementptr inbounds nuw i8, ptr %9, i64 304
  %.sroa.0.0.copyload.i = load double, ptr %18, align 8
  %19 = fsub double %.sroa.2.0.copyload.i, %.sroa.0.0.copyload.i
  %20 = sitofp i32 %1 to double
  %21 = fmul double %19, %20
  %22 = sitofp i32 %17 to double
  %23 = fdiv double %21, %22
  tail call void @_ZN7QCPAxis9moveRangeEd(ptr noundef align 8 dereferenceable_or_null(472) %9, double noundef %23)
  tail call void @_ZN11QCustomPlot6replotENS_15RefreshPriorityE(ptr noundef align 8 dereferenceable_or_null(513) %7, i32 noundef 2)
  br label %24

24:                                               ; preds = %3, %2
  ret void
}